target datalayout = "e-m:e-p270:32:32-p271:32:32-p272:64:64-i64:64-i128:128-f80:128-n8:16:32:64-S128"
target triple = "x86_64-pc-linux-gnu"

%struct._drange_node = type { i32, i32, i32, i32 }
%struct._drange = type { ptr, i8, i32, i32, i32 }
%struct._GSList = type { ptr, ptr }
%struct._GString = type { ptr, i64, i64 }

@.str.4 = private unnamed_addr constant [1 x i8] zeroinitializer, align 1
@.str.7 = private unnamed_addr constant [4 x i8] c"%d:\00", align 1
@.str.8 = private unnamed_addr constant [6 x i8] c"%d-%d\00", align 1
@.str.9 = private unnamed_addr constant [6 x i8] c"%d:%d\00", align 1
@.str.10 = private unnamed_addr constant [11 x i8] c"%d/%d/%d/U\00", align 1

; Function Attrs: inlinehint null_pointer_is_valid sspstrong uwtable
define internal ptr @g_string_append_c_inline(ptr noundef %0, i8 noundef signext %1) #8 {
  %3 = alloca ptr, align 8
  %4 = alloca i8, align 1
  store ptr %0, ptr %3, align 8
  store i8 %1, ptr %4, align 1
  %5 = load ptr, ptr %3, align 8
  %6 = getelementptr inbounds nuw %struct._GString, ptr %5, i32 0, i32 1
  %7 = load i64, ptr %6, align 8
  %8 = add i64 %7, 1
  %9 = load ptr, ptr %3, align 8
  %10 = getelementptr inbounds nuw %struct._GString, ptr %9, i32 0, i32 2
  %11 = load i64, ptr %10, align 8
  %12 = icmp ult i64 %8, %11
  br i1 %12, label %13, label %30

13:                                               ; preds = %2
  %14 = load i8, ptr %4, align 1
  %15 = load ptr, ptr %3, align 8
  %16 = getelementptr inbounds nuw %struct._GString, ptr %15, i32 0, i32 0
  %17 = load ptr, ptr %16, align 8
  %18 = load ptr, ptr %3, align 8
  %19 = getelementptr inbounds nuw %struct._GString, ptr %18, i32 0, i32 1
  %20 = load i64, ptr %19, align 8
  %21 = add i64 %20, 1
  store i64 %21, ptr %19, align 8
  %22 = getelementptr i8, ptr %17, i64 %20
  store i8 %14, ptr %22, align 1
  %23 = load ptr, ptr %3, align 8
  %24 = getelementptr inbounds nuw %struct._GString, ptr %23, i32 0, i32 0
  %25 = load ptr, ptr %24, align 8
  %26 = load ptr, ptr %3, align 8
  %27 = getelementptr inbounds nuw %struct._GString, ptr %26, i32 0, i32 1
  %28 = load i64, ptr %27, align 8
  %29 = getelementptr i8, ptr %25, i64 %28
  store i8 0, ptr %29, align 1
  br label %34

30:                                               ; preds = %2
  %31 = load ptr, ptr %3, align 8
  %32 = load i8, ptr %4, align 1
  %33 = call ptr @g_string_insert_c(ptr noundef %31, i64 noundef -1, i8 noundef signext %32)
  br label %34

34:                                               ; preds = %30, %13
  %35 = load ptr, ptr %3, align 8
  ret ptr %35
}

; Function Attrs: null_pointer_is_valid sspstrong uwtable
define hidden ptr @drange_node_tostr(ptr noundef %0) #0 {
  %2 = alloca ptr, align 8
  %3 = alloca ptr, align 8
  store ptr %0, ptr %3, align 8
  %4 = load ptr, ptr %3, align 8
  %5 = getelementptr inbounds nuw %struct._drange_node, ptr %4, i32 0, i32 3
  %6 = load i32, ptr %5, align 4
  %7 = icmp eq i32 %6, 3
  br i1 %7, label %8, label %13

8:                                                ; preds = %1
  %9 = load ptr, ptr %3, align 8
  %10 = getelementptr inbounds nuw %struct._drange_node, ptr %9, i32 0, i32 0
  %11 = load i32, ptr %10, align 4
  %12 = call noalias ptr (ptr, ptr, ...) @wmem_strdup_printf(ptr noundef null, ptr noundef @.str.7, i32 noundef %11)
  store ptr %12, ptr %2, align 8
  br label %50

13:                                               ; preds = %1
  %14 = load ptr, ptr %3, align 8
  %15 = getelementptr inbounds nuw %struct._drange_node, ptr %14, i32 0, i32 3
  %16 = load i32, ptr %15, align 4
  %17 = icmp eq i32 %16, 2
  br i1 %17, label %18, label %26

18:                                               ; preds = %13
  %19 = load ptr, ptr %3, align 8
  %20 = getelementptr inbounds nuw %struct._drange_node, ptr %19, i32 0, i32 0
  %21 = load i32, ptr %20, align 4
  %22 = load ptr, ptr %3, align 8
  %23 = getelementptr inbounds nuw %struct._drange_node, ptr %22, i32 0, i32 2
  %24 = load i32, ptr %23, align 4
  %25 = call noalias ptr (ptr, ptr, ...) @wmem_strdup_printf(ptr noundef null, ptr noundef @.str.8, i32 noundef %21, i32 noundef %24)
  store ptr %25, ptr %2, align 8
  br label %50

26:                                               ; preds = %13
  %27 = load ptr, ptr %3, align 8
  %28 = getelementptr inbounds nuw %struct._drange_node, ptr %27, i32 0, i32 3
  %29 = load i32, ptr %28, align 4
  %30 = icmp eq i32 %29, 1
  br i1 %30, label %31, label %39

31:                                               ; preds = %26
  %32 = load ptr, ptr %3, align 8
  %33 = getelementptr inbounds nuw %struct._drange_node, ptr %32, i32 0, i32 0
  %34 = load i32, ptr %33, align 4
  %35 = load ptr, ptr %3, align 8
  %36 = getelementptr inbounds nuw %struct._drange_node, ptr %35, i32 0, i32 1
  %37 = load i32, ptr %36, align 4
  %38 = call noalias ptr (ptr, ptr, ...) @wmem_strdup_printf(ptr noundef null, ptr noundef @.str.9, i32 noundef %34, i32 noundef %37)
  store ptr %38, ptr %2, align 8
  br label %50

39:                                               ; preds = %26
  %40 = load ptr, ptr %3, align 8
  %41 = getelementptr inbounds nuw %struct._drange_node, ptr %40, i32 0, i32 0
  %42 = load i32, ptr %41, align 4
  %43 = load ptr, ptr %3, align 8
  %44 = getelementptr inbounds nuw %struct._drange_node, ptr %43, i32 0, i32 1
  %45 = load i32, ptr %44, align 4
  %46 = load ptr, ptr %3, align 8
  %47 = getelementptr inbounds nuw %struct._drange_node, ptr %46, i32 0, i32 2
  %48 = load i32, ptr %47, align 4
  %49 = call noalias ptr (ptr, ptr, ...) @wmem_strdup_printf(ptr noundef null, ptr noundef @.str.10, i32 noundef %42, i32 noundef %45, i32 noundef %48)
  store ptr %49, ptr %2, align 8
  br label %50

50:                                               ; preds = %39, %31, %18, %8
  %51 = load ptr, ptr %2, align 8
  ret ptr %51
}

; Function Attrs: null_pointer_is_valid sspstrong uwtable
define hidden ptr @drange_tostr(ptr noundef %0) #0 {
  %2 = alloca ptr, align 8
  %3 = alloca ptr, align 8
  %4 = alloca ptr, align 8
  %5 = alloca ptr, align 8
  store ptr %0, ptr %2, align 8
  call void @llvm.lifetime.start.p0(i64 8, ptr %3) #11
  %6 = call ptr @g_string_new(ptr noundef @.str.4)
  store ptr %6, ptr %3, align 8
  call void @llvm.lifetime.start.p0(i64 8, ptr %4) #11
  %7 = load ptr, ptr %2, align 8
  %8 = getelementptr inbounds nuw %struct._drange, ptr %7, i32 0, i32 0
  %9 = load ptr, ptr %8, align 8
  store ptr %9, ptr %4, align 8
  call void @llvm.lifetime.start.p0(i64 8, ptr %5) #11
  br label %10

10:                                               ; preds = %36, %1
  %11 = load ptr, ptr %4, align 8
  %12 = icmp ne ptr %11, null
  br i1 %12, label %13, label %37

13:                                               ; preds = %10
  %14 = load ptr, ptr %4, align 8
  %15 = getelementptr inbounds nuw %struct._GSList, ptr %14, i32 0, i32 0
  %16 = load ptr, ptr %15, align 8
  %17 = call ptr @drange_node_tostr(ptr noundef %16)
  store ptr %17, ptr %5, align 8
  %18 = load ptr, ptr %3, align 8
  %19 = load ptr, ptr %5, align 8
  %20 = call ptr @g_string_append(ptr noundef %18, ptr noundef %19)
  %21 = load ptr, ptr %5, align 8
  call void @g_free(ptr noundef %21)
  %22 = load ptr, ptr %4, align 8
  %23 = icmp ne ptr %22, null
  br i1 %23, label %24, label %28

24:                                               ; preds = %13
  %25 = load ptr, ptr %4, align 8
  %26 = getelementptr inbounds nuw %struct._GSList, ptr %25, i32 0, i32 1
  %27 = load ptr, ptr %26, align 8
  br label %29

28:                                               ; preds = %13
  br label %29

29:                                               ; preds = %28, %24
  %30 = phi ptr [ %27, %24 ], [ null, %28 ]
  store ptr %30, ptr %4, align 8
  %31 = load ptr, ptr %4, align 8
  %32 = icmp ne ptr %31, null
  br i1 %32, label %33, label %36

33:                                               ; preds = %29
  %34 = load ptr, ptr %3, align 8
  %35 = call ptr @g_string_append_c_inline(ptr noundef %34, i8 noundef signext 44)
  br label %36

36:                                               ; preds = %33, %29
  br label %10, !llvm.loop !12

37:                                               ; preds = %10
  %38 = load ptr, ptr %3, align 8
  %39 = call ptr @g_string_free(ptr noundef %38, i32 noundef 0)
  call void @llvm.lifetime.end.p0(i64 8, ptr %5) #11
  call void @llvm.lifetime.end.p0(i64 8, ptr %4) #11
  call void @llvm.lifetime.end.p0(i64 8, ptr %3) #11
  ret ptr %39
}