; Function Attrs: null_pointer_is_valid sspstrong uwtable
define hidden ptr @drange_tostr(ptr noundef readonly captures(none) %0) local_unnamed_addr #0 {
  %2 = tail call ptr @g_string_new(ptr noundef nonnull @.str.4)
  %3 = load ptr, ptr %0, align 8
  %.not12 = icmp eq ptr %3, null
  br i1 %.not12, label %._crit_edge, label %.lr.ph

.lr.ph:                                           ; preds = %1
  %4 = getelementptr inbounds nuw i8, ptr %2, i64 8
  %5 = getelementptr inbounds nuw i8, ptr %2, i64 16
  br label %g_string_append_c_inline.exit

g_string_append_c_inline.exit:                    ; preds = %g_string_append_c_inline.exit.backedge, %.lr.ph
  %.013 = phi ptr [ %3, %.lr.ph ], [ %28, %g_string_append_c_inline.exit.backedge ]
  %6 = load ptr, ptr %.013, align 8
  %7 = getelementptr inbounds nuw i8, ptr %6, i64 12
  %8 = load i32, ptr %7, align 4
  %9 = load i32, ptr %6, align 4
  switch i32 %8, label %20 [
    i32 3, label %10
    i32 2, label %12
    i32 1, label %16
  ]

10:                                               ; preds = %g_string_append_c_inline.exit
  %11 = tail call noalias ptr (ptr, ptr, ...) @wmem_strdup_printf(ptr noundef null, ptr noundef nonnull @.str.7, i32 noundef %9)
  br label %drange_node_tostr.exit

12:                                               ; preds = %g_string_append_c_inline.exit
  %13 = getelementptr inbounds nuw i8, ptr %6, i64 8
  %14 = load i32, ptr %13, align 4
  %15 = tail call noalias ptr (ptr, ptr, ...) @wmem_strdup_printf(ptr noundef null, ptr noundef nonnull @.str.8, i32 noundef %9, i32 noundef %14)
  br label %drange_node_tostr.exit

16:                                               ; preds = %g_string_append_c_inline.exit
  %17 = getelementptr inbounds nuw i8, ptr %6, i64 4
  %18 = load i32, ptr %17, align 4
  %19 = tail call noalias ptr (ptr, ptr, ...) @wmem_strdup_printf(ptr noundef null, ptr noundef nonnull @.str.9, i32 noundef %9, i32 noundef %18)
  br label %drange_node_tostr.exit

20:                                               ; preds = %g_string_append_c_inline.exit
  %21 = getelementptr inbounds nuw i8, ptr %6, i64 4
  %22 = load i32, ptr %21, align 4
  %23 = getelementptr inbounds nuw i8, ptr %6, i64 8
  %24 = load i32, ptr %23, align 4
  %25 = tail call noalias ptr (ptr, ptr, ...) @wmem_strdup_printf(ptr noundef null, ptr noundef nonnull @.str.10, i32 noundef %9, i32 noundef %22, i32 noundef %24)
  br label %drange_node_tostr.exit

drange_node_tostr.exit:                           ; preds = %10, %12, %16, %20
  %.0.i = phi ptr [ %11, %10 ], [ %15, %12 ], [ %19, %16 ], [ %25, %20 ]
  %26 = tail call ptr @g_string_append(ptr noundef %2, ptr noundef %.0.i)
  tail call void @g_free(ptr noundef %.0.i)
  %27 = getelementptr inbounds nuw i8, ptr %.013, i64 8
  %28 = load ptr, ptr %27, align 8
  %cond = icmp eq ptr %28, null
  br i1 %cond, label %._crit_edge, label %29

29:                                               ; preds = %drange_node_tostr.exit
  %30 = load i64, ptr %4, align 8
  %31 = add i64 %30, 1
  %32 = load i64, ptr %5, align 8
  %33 = icmp ult i64 %31, %32
  br i1 %33, label %34, label %40

34:                                               ; preds = %29
  %35 = load ptr, ptr %2, align 8
  store i64 %31, ptr %4, align 8
  %36 = getelementptr i8, ptr %35, i64 %30
  store i8 44, ptr %36, align 1
  %37 = load ptr, ptr %2, align 8
  %38 = load i64, ptr %4, align 8
  %39 = getelementptr i8, ptr %37, i64 %38
  store i8 0, ptr %39, align 1
  br label %g_string_append_c_inline.exit.backedge

40:                                               ; preds = %29
  %41 = tail call ptr @g_string_insert_c(ptr noundef %2, i64 noundef -1, i8 noundef signext 44)
  br label %g_string_append_c_inline.exit.backedge

g_string_append_c_inline.exit.backedge:           ; preds = %40, %34
  br label %g_string_append_c_inline.exit

._crit_edge:                                      ; preds = %drange_node_tostr.exit, %1
  %42 = tail call ptr @g_string_free(ptr noundef %2, i32 noundef 0)
  ret ptr %42
}